target datalayout = "e-m:e-p270:32:32-p271:32:32-p272:64:64-i64:64-i128:128-f80:128-n8:16:32:64-S128"
target triple = "x86_64-pc-linux-gnu"

%struct.rax = type { ptr, i64, i64, [0 x ptr] }
%struct.dict = type { ptr, [2 x ptr], [2 x i64], i64, i16, [2 x i8], i16, [0 x ptr] }
%struct.raxIterator = type { i32, ptr, ptr, ptr, i64, i64, [128 x i8], ptr, %struct.raxStack, ptr }
%struct.raxStack = type { ptr, i64, i64, [32 x ptr], i32 }
%struct.redisObject = type { i32, i32, ptr }
%struct.quicklist = type { ptr, ptr, i64, i64, i64, [0 x %struct.quicklistBookmark] }
%struct.quicklistBookmark = type { ptr, ptr }
%struct.zset = type { ptr, ptr }
%struct.zskiplist = type { ptr, ptr, i64, i32 }
%struct.stream = type { ptr, i64, %struct.streamID, %struct.streamID, %struct.streamID, i64, ptr }
%struct.streamID = type { i64, i64 }
%struct.streamCG = type { %struct.streamID, i64, ptr, ptr }

@.str.1 = private unnamed_addr constant [2 x i8] c"^\00", align 1
@.str.2 = private unnamed_addr constant [13 x i8] c"raxNext(&ri)\00", align 1
@.str.3 = private unnamed_addr constant [11 x i8] c"lazyfree.c\00", align 1

; Function Attrs: nounwind uwtable
define dso_local i64 @lazyfreeGetFreeEffort(ptr noundef %0, ptr noundef %1, i32 noundef %2) #0 {
  %4 = alloca i64, align 8
  %5 = alloca ptr, align 8
  %6 = alloca ptr, align 8
  %7 = alloca i32, align 4
  %8 = alloca ptr, align 8
  %9 = alloca ptr, align 8
  %10 = alloca ptr, align 8
  %11 = alloca ptr, align 8
  %12 = alloca i64, align 8
  %13 = alloca ptr, align 8
  %14 = alloca %struct.raxIterator, align 8
  %15 = alloca ptr, align 8
  %16 = alloca i64, align 8
  store ptr %0, ptr %5, align 8, !tbaa !9
  store ptr %1, ptr %6, align 8, !tbaa !9
  store i32 %2, ptr %7, align 4, !tbaa !30
  %17 = load ptr, ptr %6, align 8, !tbaa !9
  %18 = load i32, ptr %17, align 8
  %19 = and i32 %18, 15
  %20 = icmp eq i32 %19, 1
  br i1 %20, label %21, label %34

21:                                               ; preds = %3
  %22 = load ptr, ptr %6, align 8, !tbaa !9
  %23 = load i32, ptr %22, align 8
  %24 = lshr i32 %23, 4
  %25 = and i32 %24, 15
  %26 = icmp eq i32 %25, 9
  br i1 %26, label %27, label %34

27:                                               ; preds = %21
  call void @llvm.lifetime.start.p0(i64 8, ptr %8) #7
  %28 = load ptr, ptr %6, align 8, !tbaa !9
  %29 = getelementptr inbounds nuw %struct.redisObject, ptr %28, i32 0, i32 2
  %30 = load ptr, ptr %29, align 8, !tbaa !32
  store ptr %30, ptr %8, align 8, !tbaa !34
  %31 = load ptr, ptr %8, align 8, !tbaa !34
  %32 = getelementptr inbounds nuw %struct.quicklist, ptr %31, i32 0, i32 3
  %33 = load i64, ptr %32, align 8, !tbaa !11
  store i64 %33, ptr %4, align 8
  call void @llvm.lifetime.end.p0(i64 8, ptr %8) #7
  br label %179

34:                                               ; preds = %21, %3
  %35 = load ptr, ptr %6, align 8, !tbaa !9
  %36 = load i32, ptr %35, align 8
  %37 = and i32 %36, 15
  %38 = icmp eq i32 %37, 2
  br i1 %38, label %39, label %58

39:                                               ; preds = %34
  %40 = load ptr, ptr %6, align 8, !tbaa !9
  %41 = load i32, ptr %40, align 8
  %42 = lshr i32 %41, 4
  %43 = and i32 %42, 15
  %44 = icmp eq i32 %43, 2
  br i1 %44, label %45, label %58

45:                                               ; preds = %39
  call void @llvm.lifetime.start.p0(i64 8, ptr %9) #7
  %46 = load ptr, ptr %6, align 8, !tbaa !9
  %47 = getelementptr inbounds nuw %struct.redisObject, ptr %46, i32 0, i32 2
  %48 = load ptr, ptr %47, align 8, !tbaa !32
  store ptr %48, ptr %9, align 8, !tbaa !17
  %49 = load ptr, ptr %9, align 8, !tbaa !17
  %50 = getelementptr inbounds nuw %struct.dict, ptr %49, i32 0, i32 2
  %51 = getelementptr inbounds [2 x i64], ptr %50, i64 0, i64 0
  %52 = load i64, ptr %51, align 8, !tbaa !11
  %53 = load ptr, ptr %9, align 8, !tbaa !17
  %54 = getelementptr inbounds nuw %struct.dict, ptr %53, i32 0, i32 2
  %55 = getelementptr inbounds [2 x i64], ptr %54, i64 0, i64 1
  %56 = load i64, ptr %55, align 8, !tbaa !11
  %57 = add i64 %52, %56
  store i64 %57, ptr %4, align 8
  call void @llvm.lifetime.end.p0(i64 8, ptr %9) #7
  br label %179

58:                                               ; preds = %39, %34
  %59 = load ptr, ptr %6, align 8, !tbaa !9
  %60 = load i32, ptr %59, align 8
  %61 = and i32 %60, 15
  %62 = icmp eq i32 %61, 3
  br i1 %62, label %63, label %78

63:                                               ; preds = %58
  %64 = load ptr, ptr %6, align 8, !tbaa !9
  %65 = load i32, ptr %64, align 8
  %66 = lshr i32 %65, 4
  %67 = and i32 %66, 15
  %68 = icmp eq i32 %67, 7
  br i1 %68, label %69, label %78

69:                                               ; preds = %63
  call void @llvm.lifetime.start.p0(i64 8, ptr %10) #7
  %70 = load ptr, ptr %6, align 8, !tbaa !9
  %71 = getelementptr inbounds nuw %struct.redisObject, ptr %70, i32 0, i32 2
  %72 = load ptr, ptr %71, align 8, !tbaa !32
  store ptr %72, ptr %10, align 8, !tbaa !36
  %73 = load ptr, ptr %10, align 8, !tbaa !36
  %74 = getelementptr inbounds nuw %struct.zset, ptr %73, i32 0, i32 1
  %75 = load ptr, ptr %74, align 8, !tbaa !38
  %76 = getelementptr inbounds nuw %struct.zskiplist, ptr %75, i32 0, i32 2
  %77 = load i64, ptr %76, align 8, !tbaa !41
  store i64 %77, ptr %4, align 8
  call void @llvm.lifetime.end.p0(i64 8, ptr %10) #7
  br label %179

78:                                               ; preds = %63, %58
  %79 = load ptr, ptr %6, align 8, !tbaa !9
  %80 = load i32, ptr %79, align 8
  %81 = and i32 %80, 15
  %82 = icmp eq i32 %81, 4
  br i1 %82, label %83, label %102

83:                                               ; preds = %78
  %84 = load ptr, ptr %6, align 8, !tbaa !9
  %85 = load i32, ptr %84, align 8
  %86 = lshr i32 %85, 4
  %87 = and i32 %86, 15
  %88 = icmp eq i32 %87, 2
  br i1 %88, label %89, label %102

89:                                               ; preds = %83
  call void @llvm.lifetime.start.p0(i64 8, ptr %11) #7
  %90 = load ptr, ptr %6, align 8, !tbaa !9
  %91 = getelementptr inbounds nuw %struct.redisObject, ptr %90, i32 0, i32 2
  %92 = load ptr, ptr %91, align 8, !tbaa !32
  store ptr %92, ptr %11, align 8, !tbaa !17
  %93 = load ptr, ptr %11, align 8, !tbaa !17
  %94 = getelementptr inbounds nuw %struct.dict, ptr %93, i32 0, i32 2
  %95 = getelementptr inbounds [2 x i64], ptr %94, i64 0, i64 0
  %96 = load i64, ptr %95, align 8, !tbaa !11
  %97 = load ptr, ptr %11, align 8, !tbaa !17
  %98 = getelementptr inbounds nuw %struct.dict, ptr %97, i32 0, i32 2
  %99 = getelementptr inbounds [2 x i64], ptr %98, i64 0, i64 1
  %100 = load i64, ptr %99, align 8, !tbaa !11
  %101 = add i64 %96, %100
  store i64 %101, ptr %4, align 8
  call void @llvm.lifetime.end.p0(i64 8, ptr %11) #7
  br label %179

102:                                              ; preds = %83, %78
  %103 = load ptr, ptr %6, align 8, !tbaa !9
  %104 = load i32, ptr %103, align 8
  %105 = and i32 %104, 15
  %106 = icmp eq i32 %105, 6
  br i1 %106, label %107, label %161

107:                                              ; preds = %102
  call void @llvm.lifetime.start.p0(i64 8, ptr %12) #7
  store i64 0, ptr %12, align 8, !tbaa !11
  call void @llvm.lifetime.start.p0(i64 8, ptr %13) #7
  %108 = load ptr, ptr %6, align 8, !tbaa !9
  %109 = getelementptr inbounds nuw %struct.redisObject, ptr %108, i32 0, i32 2
  %110 = load ptr, ptr %109, align 8, !tbaa !32
  store ptr %110, ptr %13, align 8, !tbaa !44
  %111 = load ptr, ptr %13, align 8, !tbaa !44
  %112 = getelementptr inbounds nuw %struct.stream, ptr %111, i32 0, i32 0
  %113 = load ptr, ptr %112, align 8, !tbaa !46
  %114 = getelementptr inbounds nuw %struct.rax, ptr %113, i32 0, i32 2
  %115 = load i64, ptr %114, align 8, !tbaa !11
  %116 = load i64, ptr %12, align 8, !tbaa !11
  %117 = add i64 %116, %115
  store i64 %117, ptr %12, align 8, !tbaa !11
  %118 = load ptr, ptr %13, align 8, !tbaa !44
  %119 = getelementptr inbounds nuw %struct.stream, ptr %118, i32 0, i32 6
  %120 = load ptr, ptr %119, align 8, !tbaa !49
  %121 = icmp ne ptr %120, null
  br i1 %121, label %122, label %159

122:                                              ; preds = %107
  %123 = load ptr, ptr %13, align 8, !tbaa !44
  %124 = getelementptr inbounds nuw %struct.stream, ptr %123, i32 0, i32 6
  %125 = load ptr, ptr %124, align 8, !tbaa !49
  %126 = call i64 @raxSize(ptr noundef %125)
  %127 = icmp ne i64 %126, 0
  br i1 %127, label %128, label %159

128:                                              ; preds = %122
  call void @llvm.lifetime.start.p0(i64 480, ptr %14) #7
  call void @llvm.lifetime.start.p0(i64 8, ptr %15) #7
  %129 = load ptr, ptr %13, align 8, !tbaa !44
  %130 = getelementptr inbounds nuw %struct.stream, ptr %129, i32 0, i32 6
  %131 = load ptr, ptr %130, align 8, !tbaa !49
  call void @raxStart(ptr noundef %14, ptr noundef %131)
  %132 = call i32 @raxSeek(ptr noundef %14, ptr noundef @.str.1, ptr noundef null, i64 noundef 0)
  %133 = call i32 @raxNext(ptr noundef %14)
  %134 = icmp ne i32 %133, 0
  %135 = xor i1 %134, true
  %136 = xor i1 %135, true
  %137 = zext i1 %136 to i32
  %138 = sext i32 %137 to i64
  %139 = call i64 @llvm.expect.i64(i64 %138, i64 1)
  %140 = icmp ne i64 %139, 0
  br i1 %140, label %141, label %142

141:                                              ; preds = %128
  br label %144

142:                                              ; preds = %128
  call void @_serverAssert(ptr noundef @.str.2, ptr noundef @.str.3, i32 noundef 160)
  call void @abort() #8
  unreachable

143:                                              ; No predecessors!
  br label %144

144:                                              ; preds = %143, %141
  %145 = getelementptr inbounds nuw %struct.raxIterator, ptr %14, i32 0, i32 3
  %146 = load ptr, ptr %145, align 8, !tbaa !50
  store ptr %146, ptr %15, align 8, !tbaa !55
  %147 = load ptr, ptr %13, align 8, !tbaa !44
  %148 = getelementptr inbounds nuw %struct.stream, ptr %147, i32 0, i32 6
  %149 = load ptr, ptr %148, align 8, !tbaa !49
  %150 = call i64 @raxSize(ptr noundef %149)
  %151 = load ptr, ptr %15, align 8, !tbaa !55
  %152 = getelementptr inbounds nuw %struct.streamCG, ptr %151, i32 0, i32 2
  %153 = load ptr, ptr %152, align 8, !tbaa !57
  %154 = call i64 @raxSize(ptr noundef %153)
  %155 = add i64 1, %154
  %156 = mul i64 %150, %155
  %157 = load i64, ptr %12, align 8, !tbaa !11
  %158 = add i64 %157, %156
  store i64 %158, ptr %12, align 8, !tbaa !11
  call void @raxStop(ptr noundef %14)
  call void @llvm.lifetime.end.p0(i64 8, ptr %15) #7
  call void @llvm.lifetime.end.p0(i64 480, ptr %14) #7
  br label %159

159:                                              ; preds = %144, %122, %107
  %160 = load i64, ptr %12, align 8, !tbaa !11
  store i64 %160, ptr %4, align 8
  call void @llvm.lifetime.end.p0(i64 8, ptr %13) #7
  call void @llvm.lifetime.end.p0(i64 8, ptr %12) #7
  br label %179

161:                                              ; preds = %102
  %162 = load ptr, ptr %6, align 8, !tbaa !9
  %163 = load i32, ptr %162, align 8
  %164 = and i32 %163, 15
  %165 = icmp eq i32 %164, 5
  br i1 %165, label %166, label %178

166:                                              ; preds = %161
  call void @llvm.lifetime.start.p0(i64 8, ptr %16) #7
  %167 = load ptr, ptr %5, align 8, !tbaa !9
  %168 = load ptr, ptr %6, align 8, !tbaa !9
  %169 = load i32, ptr %7, align 4, !tbaa !30
  %170 = call i64 @moduleGetFreeEffort(ptr noundef %167, ptr noundef %168, i32 noundef %169)
  store i64 %170, ptr %16, align 8, !tbaa !11
  %171 = load i64, ptr %16, align 8, !tbaa !11
  %172 = icmp eq i64 %171, 0
  br i1 %172, label %173, label %174

173:                                              ; preds = %166
  br label %176

174:                                              ; preds = %166
  %175 = load i64, ptr %16, align 8, !tbaa !11
  br label %176

176:                                              ; preds = %174, %173
  %177 = phi i64 [ -1, %173 ], [ %175, %174 ]
  store i64 %177, ptr %4, align 8
  call void @llvm.lifetime.end.p0(i64 8, ptr %16) #7
  br label %179

178:                                              ; preds = %161
  store i64 1, ptr %4, align 8
  br label %179

179:                                              ; preds = %178, %176, %159, %89, %69, %45, %27
  %180 = load i64, ptr %4, align 8
  ret i64 %180
}