; Function Attrs: nounwind uwtable
define dso_local i64 @lazyfreeGetFreeEffort(ptr noundef %0, ptr noundef %1, i32 noundef %2) local_unnamed_addr #0 {
  %4 = alloca %struct.raxIterator, align 8
  %5 = load i32, ptr %1, align 8
  %trunc = trunc i32 %5 to i8
  switch i8 %trunc, label %34 [
    i8 -111, label %6
    i8 34, label %11
    i8 115, label %19
    i8 36, label %26
  ]

6:                                                ; preds = %3
  %7 = getelementptr inbounds nuw i8, ptr %1, i64 8
  %8 = load ptr, ptr %7, align 8, !tbaa !14
  %9 = getelementptr inbounds nuw i8, ptr %8, i64 24
  %10 = load i64, ptr %9, align 8, !tbaa !9
  br label %66

11:                                               ; preds = %3
  %12 = getelementptr inbounds nuw i8, ptr %1, i64 8
  %13 = load ptr, ptr %12, align 8, !tbaa !14
  %14 = getelementptr inbounds nuw i8, ptr %13, i64 24
  %15 = load i64, ptr %14, align 8, !tbaa !9
  %16 = getelementptr inbounds nuw i8, ptr %13, i64 32
  %17 = load i64, ptr %16, align 8, !tbaa !9
  %18 = add i64 %17, %15
  br label %66

19:                                               ; preds = %3
  %20 = getelementptr inbounds nuw i8, ptr %1, i64 8
  %21 = load ptr, ptr %20, align 8, !tbaa !14
  %22 = getelementptr inbounds nuw i8, ptr %21, i64 8
  %23 = load ptr, ptr %22, align 8, !tbaa !17
  %24 = getelementptr inbounds nuw i8, ptr %23, i64 16
  %25 = load i64, ptr %24, align 8, !tbaa !21
  br label %66

26:                                               ; preds = %3
  %27 = getelementptr inbounds nuw i8, ptr %1, i64 8
  %28 = load ptr, ptr %27, align 8, !tbaa !14
  %29 = getelementptr inbounds nuw i8, ptr %28, i64 24
  %30 = load i64, ptr %29, align 8, !tbaa !9
  %31 = getelementptr inbounds nuw i8, ptr %28, i64 32
  %32 = load i64, ptr %31, align 8, !tbaa !9
  %33 = add i64 %32, %30
  br label %66

34:                                               ; preds = %3
  %35 = and i32 %5, 15
  switch i32 %35, label %66 [
    i32 6, label %36
    i32 5, label %62
  ]

36:                                               ; preds = %34
  %37 = getelementptr inbounds nuw i8, ptr %1, i64 8
  %38 = load ptr, ptr %37, align 8, !tbaa !14
  %39 = load ptr, ptr %38, align 8, !tbaa !24
  %40 = getelementptr inbounds nuw i8, ptr %39, i64 16
  %41 = load i64, ptr %40, align 8, !tbaa !9
  %42 = getelementptr inbounds nuw i8, ptr %38, i64 72
  %43 = load ptr, ptr %42, align 8, !tbaa !28
  %.not = icmp eq ptr %43, null
  br i1 %.not, label %66, label %44

44:                                               ; preds = %36
  %45 = tail call i64 @raxSize(ptr noundef nonnull %43) #6
  %.not38 = icmp eq i64 %45, 0
  br i1 %.not38, label %66, label %46

46:                                               ; preds = %44
  call void @llvm.lifetime.start.p0(i64 480, ptr nonnull %4) #6
  %47 = load ptr, ptr %42, align 8, !tbaa !28
  call void @raxStart(ptr noundef nonnull %4, ptr noundef %47) #6
  %48 = call i32 @raxSeek(ptr noundef nonnull %4, ptr noundef nonnull @.str.1, ptr noundef null, i64 noundef 0) #6
  %49 = call i32 @raxNext(ptr noundef nonnull %4) #6
  %.not39 = icmp eq i32 %49, 0
  br i1 %.not39, label %50, label %51, !prof !29

50:                                               ; preds = %46
  call void @_serverAssert(ptr noundef nonnull @.str.2, ptr noundef nonnull @.str.3, i32 noundef 160) #6
  call void @abort() #7
  unreachable

51:                                               ; preds = %46
  %52 = getelementptr inbounds nuw i8, ptr %4, i64 24
  %53 = load ptr, ptr %52, align 8, !tbaa !30
  %54 = load ptr, ptr %42, align 8, !tbaa !28
  %55 = call i64 @raxSize(ptr noundef %54) #6
  %56 = getelementptr inbounds nuw i8, ptr %53, i64 24
  %57 = load ptr, ptr %56, align 8, !tbaa !35
  %58 = call i64 @raxSize(ptr noundef %57) #6
  %59 = add i64 %58, 1
  %60 = mul i64 %59, %55
  %61 = add i64 %60, %41
  call void @raxStop(ptr noundef nonnull %4) #6
  call void @llvm.lifetime.end.p0(i64 480, ptr nonnull %4) #6
  br label %66

62:                                               ; preds = %34
  %63 = tail call i64 @moduleGetFreeEffort(ptr noundef %0, ptr noundef nonnull %1, i32 noundef %2) #6
  %64 = icmp eq i64 %63, 0
  %65 = select i1 %64, i64 -1, i64 %63
  br label %66

66:                                               ; preds = %34, %36, %44, %51, %62, %26, %19, %11, %6
  %.0 = phi i64 [ %10, %6 ], [ %18, %11 ], [ %25, %19 ], [ %33, %26 ], [ %65, %62 ], [ %61, %51 ], [ %41, %44 ], [ %41, %36 ], [ 1, %34 ]
  ret i64 %.0
}